target datalayout = "e-m:e-p270:32:32-p271:32:32-p272:64:64-i64:64-i128:128-f80:128-n8:16:32:64-S128"
target triple = "x86_64-pc-linux-gnu"

%struct.SDL_BlitInfo = type { ptr, ptr, i32, i32, i32, i32, ptr, ptr, i32, i32, i32, i32, ptr, ptr, ptr, ptr, ptr, ptr, i32, i32, i8, i8, i8, i8 }

; Function Attrs: nounwind uwtable
define internal void @SDL_Blit_XBGR8888_ABGR8888_Blend(ptr noundef %0) #0 {
  %2 = alloca ptr, align 8
  %3 = alloca i32, align 4
  %4 = alloca i32, align 4
  %5 = alloca i32, align 4
  %6 = alloca i32, align 4
  %7 = alloca i32, align 4
  %8 = alloca i32, align 4
  %9 = alloca i32, align 4
  %10 = alloca i32, align 4
  %11 = alloca i32, align 4
  %12 = alloca i32, align 4
  %13 = alloca ptr, align 8
  %14 = alloca ptr, align 8
  %15 = alloca i32, align 4
  %16 = alloca i16, align 2
  %17 = alloca i16, align 2
  %18 = alloca i16, align 2
  %19 = alloca i16, align 2
  %20 = alloca i16, align 2
  %21 = alloca i16, align 2
  store ptr %0, ptr %2, align 8
  call void @llvm.lifetime.start.p0(i64 4, ptr %3) #2
  %22 = load ptr, ptr %2, align 8
  %23 = getelementptr inbounds nuw %struct.SDL_BlitInfo, ptr %22, i32 0, i32 18
  %24 = load i32, ptr %23, align 8
  store i32 %24, ptr %3, align 4
  call void @llvm.lifetime.start.p0(i64 4, ptr %4) #2
  call void @llvm.lifetime.start.p0(i64 4, ptr %5) #2
  call void @llvm.lifetime.start.p0(i64 4, ptr %6) #2
  call void @llvm.lifetime.start.p0(i64 4, ptr %7) #2
  call void @llvm.lifetime.start.p0(i64 4, ptr %8) #2
  call void @llvm.lifetime.start.p0(i64 4, ptr %9) #2
  call void @llvm.lifetime.start.p0(i64 4, ptr %10) #2
  call void @llvm.lifetime.start.p0(i64 4, ptr %11) #2
  call void @llvm.lifetime.start.p0(i64 4, ptr %12) #2
  br label %25

25:                                               ; preds = %253, %1
  %26 = load ptr, ptr %2, align 8
  %27 = getelementptr inbounds nuw %struct.SDL_BlitInfo, ptr %26, i32 0, i32 9
  %28 = load i32, ptr %27, align 4
  %29 = add nsw i32 %28, -1
  store i32 %29, ptr %27, align 4
  %30 = icmp ne i32 %28, 0
  br i1 %30, label %31, label %270

31:                                               ; preds = %25
  call void @llvm.lifetime.start.p0(i64 8, ptr %13) #2
  %32 = load ptr, ptr %2, align 8
  %33 = getelementptr inbounds nuw %struct.SDL_BlitInfo, ptr %32, i32 0, i32 1
  %34 = load ptr, ptr %33, align 8
  store ptr %34, ptr %13, align 8
  call void @llvm.lifetime.start.p0(i64 8, ptr %14) #2
  %35 = load ptr, ptr %2, align 8
  %36 = getelementptr inbounds nuw %struct.SDL_BlitInfo, ptr %35, i32 0, i32 7
  %37 = load ptr, ptr %36, align 8
  store ptr %37, ptr %14, align 8
  call void @llvm.lifetime.start.p0(i64 4, ptr %15) #2
  %38 = load ptr, ptr %2, align 8
  %39 = getelementptr inbounds nuw %struct.SDL_BlitInfo, ptr %38, i32 0, i32 8
  %40 = load i32, ptr %39, align 8
  store i32 %40, ptr %15, align 4
  br label %41

41:                                               ; preds = %236, %31
  %42 = load i32, ptr %15, align 4
  %43 = add nsw i32 %42, -1
  store i32 %43, ptr %15, align 4
  %44 = icmp ne i32 %42, 0
  br i1 %44, label %45, label %253

45:                                               ; preds = %41
  %46 = load ptr, ptr %13, align 8
  %47 = load i32, ptr %46, align 4
  store i32 %47, ptr %4, align 4
  %48 = load i32, ptr %4, align 4
  %49 = lshr i32 %48, 16
  %50 = trunc i32 %49 to i8
  %51 = zext i8 %50 to i32
  store i32 %51, ptr %7, align 4
  %52 = load i32, ptr %4, align 4
  %53 = lshr i32 %52, 8
  %54 = trunc i32 %53 to i8
  %55 = zext i8 %54 to i32
  store i32 %55, ptr %6, align 4
  %56 = load i32, ptr %4, align 4
  %57 = trunc i32 %56 to i8
  %58 = zext i8 %57 to i32
  store i32 %58, ptr %5, align 4
  %59 = load ptr, ptr %14, align 8
  %60 = load i32, ptr %59, align 4
  store i32 %60, ptr %8, align 4
  %61 = load i32, ptr %8, align 4
  %62 = lshr i32 %61, 16
  %63 = trunc i32 %62 to i8
  %64 = zext i8 %63 to i32
  store i32 %64, ptr %11, align 4
  %65 = load i32, ptr %8, align 4
  %66 = lshr i32 %65, 8
  %67 = trunc i32 %66 to i8
  %68 = zext i8 %67 to i32
  store i32 %68, ptr %10, align 4
  %69 = load i32, ptr %8, align 4
  %70 = trunc i32 %69 to i8
  %71 = zext i8 %70 to i32
  store i32 %71, ptr %9, align 4
  %72 = load i32, ptr %8, align 4
  %73 = lshr i32 %72, 24
  %74 = trunc i32 %73 to i8
  %75 = zext i8 %74 to i32
  store i32 %75, ptr %12, align 4
  %76 = load i32, ptr %3, align 4
  %77 = and i32 %76, 1008
  switch i32 %77, label %236 [
    i32 16, label %78
    i32 32, label %82
    i32 64, label %86
    i32 128, label %86
    i32 256, label %108
    i32 512, label %172
  ]

78:                                               ; preds = %45
  %79 = load i32, ptr %5, align 4
  store i32 %79, ptr %9, align 4
  %80 = load i32, ptr %6, align 4
  store i32 %80, ptr %10, align 4
  %81 = load i32, ptr %7, align 4
  store i32 %81, ptr %11, align 4
  store i32 255, ptr %12, align 4
  br label %236

82:                                               ; preds = %45
  %83 = load i32, ptr %5, align 4
  store i32 %83, ptr %9, align 4
  %84 = load i32, ptr %6, align 4
  store i32 %84, ptr %10, align 4
  %85 = load i32, ptr %7, align 4
  store i32 %85, ptr %11, align 4
  store i32 255, ptr %12, align 4
  br label %236

86:                                               ; preds = %45, %45
  %87 = load i32, ptr %5, align 4
  %88 = load i32, ptr %9, align 4
  %89 = add i32 %87, %88
  store i32 %89, ptr %9, align 4
  %90 = load i32, ptr %9, align 4
  %91 = icmp ugt i32 %90, 255
  br i1 %91, label %92, label %93

92:                                               ; preds = %86
  store i32 255, ptr %9, align 4
  br label %93

93:                                               ; preds = %92, %86
  %94 = load i32, ptr %6, align 4
  %95 = load i32, ptr %10, align 4
  %96 = add i32 %94, %95
  store i32 %96, ptr %10, align 4
  %97 = load i32, ptr %10, align 4
  %98 = icmp ugt i32 %97, 255
  br i1 %98, label %99, label %100

99:                                               ; preds = %93
  store i32 255, ptr %10, align 4
  br label %100

100:                                              ; preds = %99, %93
  %101 = load i32, ptr %7, align 4
  %102 = load i32, ptr %11, align 4
  %103 = add i32 %101, %102
  store i32 %103, ptr %11, align 4
  %104 = load i32, ptr %11, align 4
  %105 = icmp ugt i32 %104, 255
  br i1 %105, label %106, label %107

106:                                              ; preds = %100
  store i32 255, ptr %11, align 4
  br label %107

107:                                              ; preds = %106, %100
  br label %236

108:                                              ; preds = %45
  br label %109

109:                                              ; preds = %108
  call void @llvm.lifetime.start.p0(i64 2, ptr %16) #2
  %110 = load i32, ptr %5, align 4
  %111 = load i32, ptr %9, align 4
  %112 = mul i32 %110, %111
  %113 = trunc i32 %112 to i16
  store i16 %113, ptr %16, align 2
  %114 = load i16, ptr %16, align 2
  %115 = zext i16 %114 to i32
  %116 = add i32 %115, 1
  %117 = trunc i32 %116 to i16
  store i16 %117, ptr %16, align 2
  %118 = load i16, ptr %16, align 2
  %119 = zext i16 %118 to i32
  %120 = ashr i32 %119, 8
  %121 = load i16, ptr %16, align 2
  %122 = zext i16 %121 to i32
  %123 = add nsw i32 %122, %120
  %124 = trunc i32 %123 to i16
  store i16 %124, ptr %16, align 2
  %125 = load i16, ptr %16, align 2
  %126 = zext i16 %125 to i32
  %127 = ashr i32 %126, 8
  store i32 %127, ptr %9, align 4
  call void @llvm.lifetime.end.p0(i64 2, ptr %16) #2
  br label %128

128:                                              ; preds = %109
  br label %129

129:                                              ; preds = %128
  br label %130

130:                                              ; preds = %129
  call void @llvm.lifetime.start.p0(i64 2, ptr %17) #2
  %131 = load i32, ptr %6, align 4
  %132 = load i32, ptr %10, align 4
  %133 = mul i32 %131, %132
  %134 = trunc i32 %133 to i16
  store i16 %134, ptr %17, align 2
  %135 = load i16, ptr %17, align 2
  %136 = zext i16 %135 to i32
  %137 = add i32 %136, 1
  %138 = trunc i32 %137 to i16
  store i16 %138, ptr %17, align 2
  %139 = load i16, ptr %17, align 2
  %140 = zext i16 %139 to i32
  %141 = ashr i32 %140, 8
  %142 = load i16, ptr %17, align 2
  %143 = zext i16 %142 to i32
  %144 = add nsw i32 %143, %141
  %145 = trunc i32 %144 to i16
  store i16 %145, ptr %17, align 2
  %146 = load i16, ptr %17, align 2
  %147 = zext i16 %146 to i32
  %148 = ashr i32 %147, 8
  store i32 %148, ptr %10, align 4
  call void @llvm.lifetime.end.p0(i64 2, ptr %17) #2
  br label %149

149:                                              ; preds = %130
  br label %150

150:                                              ; preds = %149
  br label %151

151:                                              ; preds = %150
  call void @llvm.lifetime.start.p0(i64 2, ptr %18) #2
  %152 = load i32, ptr %7, align 4
  %153 = load i32, ptr %11, align 4
  %154 = mul i32 %152, %153
  %155 = trunc i32 %154 to i16
  store i16 %155, ptr %18, align 2
  %156 = load i16, ptr %18, align 2
  %157 = zext i16 %156 to i32
  %158 = add i32 %157, 1
  %159 = trunc i32 %158 to i16
  store i16 %159, ptr %18, align 2
  %160 = load i16, ptr %18, align 2
  %161 = zext i16 %160 to i32
  %162 = ashr i32 %161, 8
  %163 = load i16, ptr %18, align 2
  %164 = zext i16 %163 to i32
  %165 = add nsw i32 %164, %162
  %166 = trunc i32 %165 to i16
  store i16 %166, ptr %18, align 2
  %167 = load i16, ptr %18, align 2
  %168 = zext i16 %167 to i32
  %169 = ashr i32 %168, 8
  store i32 %169, ptr %11, align 4
  call void @llvm.lifetime.end.p0(i64 2, ptr %18) #2
  br label %170

170:                                              ; preds = %151
  br label %171

171:                                              ; preds = %170
  br label %236

172:                                              ; preds = %45
  br label %173

173:                                              ; preds = %172
  call void @llvm.lifetime.start.p0(i64 2, ptr %19) #2
  %174 = load i32, ptr %5, align 4
  %175 = load i32, ptr %9, align 4
  %176 = mul i32 %174, %175
  %177 = trunc i32 %176 to i16
  store i16 %177, ptr %19, align 2
  %178 = load i16, ptr %19, align 2
  %179 = zext i16 %178 to i32
  %180 = add i32 %179, 1
  %181 = trunc i32 %180 to i16
  store i16 %181, ptr %19, align 2
  %182 = load i16, ptr %19, align 2
  %183 = zext i16 %182 to i32
  %184 = ashr i32 %183, 8
  %185 = load i16, ptr %19, align 2
  %186 = zext i16 %185 to i32
  %187 = add nsw i32 %186, %184
  %188 = trunc i32 %187 to i16
  store i16 %188, ptr %19, align 2
  %189 = load i16, ptr %19, align 2
  %190 = zext i16 %189 to i32
  %191 = ashr i32 %190, 8
  store i32 %191, ptr %9, align 4
  call void @llvm.lifetime.end.p0(i64 2, ptr %19) #2
  br label %192

192:                                              ; preds = %173
  br label %193

193:                                              ; preds = %192
  br label %194

194:                                              ; preds = %193
  call void @llvm.lifetime.start.p0(i64 2, ptr %20) #2
  %195 = load i32, ptr %6, align 4
  %196 = load i32, ptr %10, align 4
  %197 = mul i32 %195, %196
  %198 = trunc i32 %197 to i16
  store i16 %198, ptr %20, align 2
  %199 = load i16, ptr %20, align 2
  %200 = zext i16 %199 to i32
  %201 = add i32 %200, 1
  %202 = trunc i32 %201 to i16
  store i16 %202, ptr %20, align 2
  %203 = load i16, ptr %20, align 2
  %204 = zext i16 %203 to i32
  %205 = ashr i32 %204, 8
  %206 = load i16, ptr %20, align 2
  %207 = zext i16 %206 to i32
  %208 = add nsw i32 %207, %205
  %209 = trunc i32 %208 to i16
  store i16 %209, ptr %20, align 2
  %210 = load i16, ptr %20, align 2
  %211 = zext i16 %210 to i32
  %212 = ashr i32 %211, 8
  store i32 %212, ptr %10, align 4
  call void @llvm.lifetime.end.p0(i64 2, ptr %20) #2
  br label %213

213:                                              ; preds = %194
  br label %214

214:                                              ; preds = %213
  br label %215

215:                                              ; preds = %214
  call void @llvm.lifetime.start.p0(i64 2, ptr %21) #2
  %216 = load i32, ptr %7, align 4
  %217 = load i32, ptr %11, align 4
  %218 = mul i32 %216, %217
  %219 = trunc i32 %218 to i16
  store i16 %219, ptr %21, align 2
  %220 = load i16, ptr %21, align 2
  %221 = zext i16 %220 to i32
  %222 = add i32 %221, 1
  %223 = trunc i32 %222 to i16
  store i16 %223, ptr %21, align 2
  %224 = load i16, ptr %21, align 2
  %225 = zext i16 %224 to i32
  %226 = ashr i32 %225, 8
  %227 = load i16, ptr %21, align 2
  %228 = zext i16 %227 to i32
  %229 = add nsw i32 %228, %226
  %230 = trunc i32 %229 to i16
  store i16 %230, ptr %21, align 2
  %231 = load i16, ptr %21, align 2
  %232 = zext i16 %231 to i32
  %233 = ashr i32 %232, 8
  store i32 %233, ptr %11, align 4
  call void @llvm.lifetime.end.p0(i64 2, ptr %21) #2
  br label %234

234:                                              ; preds = %215
  br label %235

235:                                              ; preds = %234
  br label %236

236:                                              ; preds = %45, %235, %171, %107, %82, %78
  %237 = load i32, ptr %12, align 4
  %238 = shl i32 %237, 24
  %239 = load i32, ptr %11, align 4
  %240 = shl i32 %239, 16
  %241 = or i32 %238, %240
  %242 = load i32, ptr %10, align 4
  %243 = shl i32 %242, 8
  %244 = or i32 %241, %243
  %245 = load i32, ptr %9, align 4
  %246 = or i32 %244, %245
  store i32 %246, ptr %8, align 4
  %247 = load i32, ptr %8, align 4
  %248 = load ptr, ptr %14, align 8
  store i32 %247, ptr %248, align 4
  %249 = load ptr, ptr %13, align 8
  %250 = getelementptr inbounds nuw i32, ptr %249, i32 1
  store ptr %250, ptr %13, align 8
  %251 = load ptr, ptr %14, align 8
  %252 = getelementptr inbounds nuw i32, ptr %251, i32 1
  store ptr %252, ptr %14, align 8
  br label %41, !llvm.loop !104

253:                                              ; preds = %41
  %254 = load ptr, ptr %2, align 8
  %255 = getelementptr inbounds nuw %struct.SDL_BlitInfo, ptr %254, i32 0, i32 4
  %256 = load i32, ptr %255, align 8
  %257 = load ptr, ptr %2, align 8
  %258 = getelementptr inbounds nuw %struct.SDL_BlitInfo, ptr %257, i32 0, i32 1
  %259 = load ptr, ptr %258, align 8
  %260 = sext i32 %256 to i64
  %261 = getelementptr inbounds i8, ptr %259, i64 %260
  store ptr %261, ptr %258, align 8
  %262 = load ptr, ptr %2, align 8
  %263 = getelementptr inbounds nuw %struct.SDL_BlitInfo, ptr %262, i32 0, i32 10
  %264 = load i32, ptr %263, align 8
  %265 = load ptr, ptr %2, align 8
  %266 = getelementptr inbounds nuw %struct.SDL_BlitInfo, ptr %265, i32 0, i32 7
  %267 = load ptr, ptr %266, align 8
  %268 = sext i32 %264 to i64
  %269 = getelementptr inbounds i8, ptr %267, i64 %268
  store ptr %269, ptr %266, align 8
  call void @llvm.lifetime.end.p0(i64 4, ptr %15) #2
  call void @llvm.lifetime.end.p0(i64 8, ptr %14) #2
  call void @llvm.lifetime.end.p0(i64 8, ptr %13) #2
  br label %25, !llvm.loop !105

270:                                              ; preds = %25
  call void @llvm.lifetime.end.p0(i64 4, ptr %12) #2
  call void @llvm.lifetime.end.p0(i64 4, ptr %11) #2
  call void @llvm.lifetime.end.p0(i64 4, ptr %10) #2
  call void @llvm.lifetime.end.p0(i64 4, ptr %9) #2
  call void @llvm.lifetime.end.p0(i64 4, ptr %8) #2
  call void @llvm.lifetime.end.p0(i64 4, ptr %7) #2
  call void @llvm.lifetime.end.p0(i64 4, ptr %6) #2
  call void @llvm.lifetime.end.p0(i64 4, ptr %5) #2
  call void @llvm.lifetime.end.p0(i64 4, ptr %4) #2
  call void @llvm.lifetime.end.p0(i64 4, ptr %3) #2
  ret void
}